; Function Attrs: nofree nosync nounwind memory(readwrite, inaccessiblemem: none) uwtable
define void @Gia_FlaConvertToGla_rec(ptr noundef readonly captures(none) %0, ptr noundef %1, ptr noundef readonly captures(none) %2) local_unnamed_addr #4 {
  %4 = getelementptr inbounds nuw i8, ptr %0, i64 616
  %5 = getelementptr i8, ptr %0, i64 32
  %6 = getelementptr inbounds nuw i8, ptr %0, i64 176
  %7 = load ptr, ptr %4, align 8, !tbaa !53
  %.val.i24 = load ptr, ptr %5, align 8, !tbaa !54
  %8 = ptrtoint ptr %1 to i64
  %9 = ptrtoint ptr %.val.i24 to i64
  %10 = sub i64 %8, %9
  %11 = sdiv exact i64 %10, 12
  %sext.i25 = shl i64 %11, 32
  %12 = ashr exact i64 %sext.i25, 30
  %13 = getelementptr inbounds i8, ptr %7, i64 %12
  %14 = load i32, ptr %13, align 4, !tbaa !42
  %15 = load i32, ptr %6, align 8, !tbaa !55
  %.not26 = icmp eq i32 %14, %15
  br i1 %.not26, label %Gia_ObjIsRo.exit._crit_edge, label %.lr.ph

.lr.ph:                                           ; preds = %3
  %16 = getelementptr i8, ptr %2, i64 8
  %17 = getelementptr i8, ptr %0, i64 16
  %18 = getelementptr i8, ptr %0, i64 64
  br label %19

19:                                               ; preds = %.lr.ph, %Gia_ObjIsRo.exit.thread
  %20 = phi i32 [ %15, %.lr.ph ], [ %47, %Gia_ObjIsRo.exit.thread ]
  %21 = phi ptr [ %13, %.lr.ph ], [ %45, %Gia_ObjIsRo.exit.thread ]
  %22 = phi i64 [ %11, %.lr.ph ], [ %43, %Gia_ObjIsRo.exit.thread ]
  %.tr2227 = phi ptr [ %1, %.lr.ph ], [ %38, %Gia_ObjIsRo.exit.thread ]
  store i32 %20, ptr %21, align 4, !tbaa !42
  %.val = load ptr, ptr %16, align 8, !tbaa !41
  %sext = shl i64 %22, 32
  %23 = ashr exact i64 %sext, 30
  %24 = getelementptr inbounds i8, ptr %.val, i64 %23
  store i32 1, ptr %24, align 4, !tbaa !42
  %.val17 = load i64, ptr %.tr2227, align 4
  %25 = and i64 %.val17, 2684354559
  %narrow.i.not.i = icmp eq i64 %25, 2684354559
  br i1 %narrow.i.not.i, label %Gia_ObjIsRo.exit, label %Gia_ObjIsRo.exit.thread

Gia_ObjIsRo.exit:                                 ; preds = %19
  %26 = lshr i64 %.val17, 32
  %27 = trunc nuw i64 %26 to i32
  %28 = and i32 %27, 536870911
  %.val4.i = load i32, ptr %17, align 8, !tbaa !56
  %.val5.i = load ptr, ptr %18, align 8, !tbaa !57
  %29 = getelementptr i8, ptr %.val5.i, i64 4
  %.val5.val.i = load i32, ptr %29, align 4, !tbaa !44
  %30 = sub nsw i32 %.val5.val.i, %.val4.i
  %.not21 = icmp slt i32 %28, %30
  br i1 %.not21, label %Gia_ObjIsRo.exit.thread, label %Gia_ObjIsRo.exit._crit_edge

Gia_ObjIsRo.exit.thread:                          ; preds = %19, %Gia_ObjIsRo.exit
  %31 = and i64 %.val17, 536870911
  %32 = sub nsw i64 0, %31
  %33 = getelementptr inbounds %struct.Gia_Obj_t_, ptr %.tr2227, i64 %32
  tail call void @Gia_FlaConvertToGla_rec(ptr noundef nonnull %0, ptr noundef nonnull %33, ptr noundef nonnull %2)
  %34 = load i64, ptr %.tr2227, align 4
  %35 = lshr i64 %34, 32
  %36 = and i64 %35, 536870911
  %37 = sub nsw i64 0, %36
  %38 = getelementptr inbounds %struct.Gia_Obj_t_, ptr %.tr2227, i64 %37
  %39 = load ptr, ptr %4, align 8, !tbaa !53
  %.val.i = load ptr, ptr %5, align 8, !tbaa !54
  %40 = ptrtoint ptr %38 to i64
  %41 = ptrtoint ptr %.val.i to i64
  %42 = sub i64 %40, %41
  %43 = sdiv exact i64 %42, 12
  %sext.i = shl i64 %43, 32
  %44 = ashr exact i64 %sext.i, 30
  %45 = getelementptr inbounds i8, ptr %39, i64 %44
  %46 = load i32, ptr %45, align 4, !tbaa !42
  %47 = load i32, ptr %6, align 8, !tbaa !55
  %.not = icmp eq i32 %46, %47
  br i1 %.not, label %Gia_ObjIsRo.exit._crit_edge, label %19

Gia_ObjIsRo.exit._crit_edge:                      ; preds = %Gia_ObjIsRo.exit.thread, %Gia_ObjIsRo.exit, %3
  ret void
}